; Function Attrs: nounwind uwtable
define range(i32 0, 2) i32 @ossl_quic_port_set_net_rbio(ptr noundef captures(none) %0, ptr noundef %1) local_unnamed_addr #0 {
  %3 = alloca %struct.bio_poll_descriptor_st, align 8
  %4 = getelementptr inbounds nuw i8, ptr %0, i64 48
  %5 = load ptr, ptr %4, align 8, !tbaa !58
  %6 = icmp eq ptr %5, %1
  br i1 %6, label %41, label %7

7:                                                ; preds = %2
  call void @llvm.lifetime.start.p0(i64 16, ptr nonnull %3) #11
  call void @llvm.memset.p0.i64(ptr noundef nonnull align 8 dereferenceable(16) %3, i8 0, i64 16, i1 false)
  %8 = icmp eq ptr %1, null
  br i1 %8, label %.critedge, label %9

9:                                                ; preds = %7
  %10 = call i32 @BIO_get_rpoll_descriptor(ptr noundef nonnull %1, ptr noundef nonnull %3) #11
  %.not9.i = icmp eq i32 %10, 0
  br i1 %.not9.i, label %validate_poll_descriptor.exit.thread29.i, label %.thread22.i

validate_poll_descriptor.exit.thread29.i:         ; preds = %9
  store i32 0, ptr %3, align 8, !tbaa !60
  br label %14

.thread22.i:                                      ; preds = %9
  %.val23.i = load i32, ptr %3, align 8, !tbaa !60
  %11 = getelementptr inbounds nuw i8, ptr %3, i64 8
  %.val1324.i = load i32, ptr %11, align 8
  %12 = icmp eq i32 %.val23.i, 1
  %13 = icmp slt i32 %.val1324.i, 0
  %or.cond.i25.i = select i1 %12, i1 %13, i1 false
  br i1 %or.cond.i25.i, label %port_update_poll_desc.exit.thread, label %14

port_update_poll_desc.exit.thread:                ; preds = %.thread22.i
  call void @ERR_new() #11
  call void @ERR_set_debug(ptr noundef nonnull @.str, i32 noundef 282, ptr noundef nonnull @__func__.validate_poll_descriptor) #11
  call void (i32, i32, ptr, ...) @ERR_set_error(i32 noundef 20, i32 noundef 524550, ptr noundef null) #11
  call void @llvm.lifetime.end.p0(i64 16, ptr nonnull %3) #11
  br label %41

14:                                               ; preds = %.thread22.i, %validate_poll_descriptor.exit.thread29.i
  %15 = load ptr, ptr %0, align 8, !tbaa !11
  %16 = getelementptr inbounds nuw i8, ptr %15, i64 40
  call void @ossl_quic_reactor_set_poll_r(ptr noundef nonnull %16, ptr noundef nonnull %3) #11
  call void @llvm.lifetime.end.p0(i64 16, ptr nonnull %3) #11
  %17 = getelementptr inbounds nuw i8, ptr %0, i64 64
  %18 = load ptr, ptr %17, align 8, !tbaa !34
  call void @ossl_quic_demux_set_bio(ptr noundef %18, ptr noundef nonnull %1) #11
  store ptr %1, ptr %4, align 8, !tbaa !58
  %19 = call i64 @BIO_ctrl(ptr noundef nonnull %1, i32 noundef 85, i64 noundef 0, ptr noundef null) #11
  %20 = trunc i64 %19 to i16
  %21 = shl i16 %20, 5
  %22 = and i16 %21, 128
  %23 = or disjoint i16 %22, 256
  br label %28

.critedge:                                        ; preds = %7
  %24 = load ptr, ptr %0, align 8, !tbaa !11
  %25 = getelementptr inbounds nuw i8, ptr %24, i64 40
  call void @ossl_quic_reactor_set_poll_r(ptr noundef nonnull %25, ptr noundef nonnull %3) #11
  call void @llvm.lifetime.end.p0(i64 16, ptr nonnull %3) #11
  %26 = getelementptr inbounds nuw i8, ptr %0, i64 64
  %27 = load ptr, ptr %26, align 8, !tbaa !34
  call void @ossl_quic_demux_set_bio(ptr noundef %27, ptr noundef null) #11
  store ptr null, ptr %4, align 8, !tbaa !58
  br label %28

28:                                               ; preds = %.critedge, %14
  %.08.i = phi i16 [ %23, %14 ], [ 256, %.critedge ]
  %29 = getelementptr inbounds nuw i8, ptr %0, i64 56
  %30 = load ptr, ptr %29, align 8, !tbaa !59
  %.not11.i = icmp eq ptr %30, null
  br i1 %.not11.i, label %port_update_addressing_mode.exit, label %31

31:                                               ; preds = %28
  %32 = call i64 @BIO_ctrl(ptr noundef nonnull %30, i32 noundef 85, i64 noundef 0, ptr noundef null) #11
  %33 = trunc i64 %32 to i16
  %34 = shl i16 %33, 5
  %35 = and i16 %34, 64
  br label %port_update_addressing_mode.exit

port_update_addressing_mode.exit:                 ; preds = %28, %31
  %.0.i10 = phi i16 [ %35, %31 ], [ 0, %28 ]
  %36 = getelementptr inbounds nuw i8, ptr %0, i64 154
  %37 = load i16, ptr %36, align 2
  %38 = and i16 %37, -449
  %39 = or i16 %.0.i10, %.08.i
  %40 = or i16 %39, %38
  store i16 %40, ptr %36, align 2
  br label %41

41:                                               ; preds = %port_update_poll_desc.exit.thread, %2, %port_update_addressing_mode.exit
  %.0 = phi i32 [ 1, %port_update_addressing_mode.exit ], [ 1, %2 ], [ 0, %port_update_poll_desc.exit.thread ]
  ret i32 %.0
}